0000000000000000 <try_lock_disas>:
   0:	41 56                   	push   %r14
   2:	53                      	push   %rbx
   3:	50                      	push   %rax
   4:	48 8b 1d 00 00 00 00    	mov    0x0(%rip),%rbx        # b <try_lock_disas+0xb>
			7: R_X86_64_GOTTPOFF	tl_tid-0x4
   b:	64 8b 0b                	mov    %fs:(%rbx),%ecx
   e:	85 c9                   	test   %ecx,%ecx
  10:	74 11                   	je     23 <try_lock_disas+0x23>
  12:	31 c0                   	xor    %eax,%eax
  14:	f0 0f b1 0f             	lock cmpxchg %ecx,(%rdi)
  18:	0f 94 c0                	sete   %al
  1b:	48 83 c4 08             	add    $0x8,%rsp
  1f:	5b                      	pop    %rbx
  20:	41 5e                   	pop    %r14
  22:	c3                      	ret    
  23:	64 48 03 1c 25 00 00 00 	add    %fs:0x0,%rbx
  2b:	00 
  2c:	49 89 fe                	mov    %rdi,%r14
  2f:	e8 00 00 00 00          	call   34 <try_lock_disas+0x34>
			30: R_X86_64_PLT32	init_tl_tid-0x4
  34:	4c 89 f7                	mov    %r14,%rdi
  37:	8b 0b                   	mov    (%rbx),%ecx
  39:	eb d7                   	jmp    12 <try_lock_disas+0x12>
  3b:	0f 1f 44 00 00          	nopl   0x0(%rax,%rax,1)

0000000000000040 <lock_disas>:
  40:	41 56                   	push   %r14
  42:	53                      	push   %rbx
  43:	50                      	push   %rax
  44:	48 8b 1d 00 00 00 00    	mov    0x0(%rip),%rbx        # 4b <lock_disas+0xb>
			47: R_X86_64_GOTTPOFF	tl_tid-0x4
  4b:	64 8b 0b                	mov    %fs:(%rbx),%ecx
  4e:	85 c9                   	test   %ecx,%ecx
  50:	75 1e                   	jne    70 <lock_disas+0x30>
  52:	64 48 03 1c 25 00 00 00 	add    %fs:0x0,%rbx
  5a:	00 
  5b:	49 89 fe                	mov    %rdi,%r14
  5e:	e8 00 00 00 00          	call   63 <lock_disas+0x23>
			5f: R_X86_64_PLT32	init_tl_tid-0x4
  63:	4c 89 f7                	mov    %r14,%rdi
  66:	8b 0b                   	mov    (%rbx),%ecx
  68:	eb 06                   	jmp    70 <lock_disas+0x30>
  6a:	f3 90                   	pause  
  6c:	0f 1f 40 00             	nopl   0x0(%rax)
  70:	8b 07                   	mov    (%rdi),%eax
  72:	85 c0                   	test   %eax,%eax
  74:	75 f4                   	jne    6a <lock_disas+0x2a>
  76:	31 c0                   	xor    %eax,%eax
  78:	f0 0f b1 0f             	lock cmpxchg %ecx,(%rdi)
  7c:	75 f2                   	jne    70 <lock_disas+0x30>
  7e:	48 83 c4 08             	add    $0x8,%rsp
  82:	5b                      	pop    %rbx
  83:	41 5e                   	pop    %r14
  85:	c3                      	ret    
  86:	66 2e 0f 1f 84 00 00 00 	cs nopw 0x0(%rax,%rax,1)
  8e:	00 00 

0000000000000090 <unlock_disas>:
  90:	c7 07 00 00 00 00       	movl   $0x0,(%rdi)
  96:	c3                      	ret    
