0000000000000000 <spinlock_init_disas>:
   0:	c7 07 00 00 00 00       	movl   $0x0,(%rdi)
   6:	c3                      	ret    
   7:	66 0f 1f 84 00 00 00 00 	nopw   0x0(%rax,%rax,1)
   f:	00 

0000000000000010 <spinlock_try_lock_disas>:
  10:	41 56                   	push   %r14
  12:	53                      	push   %rbx
  13:	50                      	push   %rax
  14:	48 8b 1d 00 00 00 00    	mov    0x0(%rip),%rbx        # 1b <spinlock_try_lock_disas+0xb>
			17: R_X86_64_GOTTPOFF	tl_tid-0x4
  1b:	64 8b 0b                	mov    %fs:(%rbx),%ecx
  1e:	85 c9                   	test   %ecx,%ecx
  20:	74 11                   	je     33 <spinlock_try_lock_disas+0x23>
  22:	31 c0                   	xor    %eax,%eax
  24:	f0 0f b1 0f             	lock cmpxchg %ecx,(%rdi)
  28:	0f 94 c0                	sete   %al
  2b:	48 83 c4 08             	add    $0x8,%rsp
  2f:	5b                      	pop    %rbx
  30:	41 5e                   	pop    %r14
  32:	c3                      	ret    
  33:	64 48 03 1c 25 00 00 00 	add    %fs:0x0,%rbx
  3b:	00 
  3c:	49 89 fe                	mov    %rdi,%r14
  3f:	e8 00 00 00 00          	call   44 <spinlock_try_lock_disas+0x34>
			40: R_X86_64_PLT32	init_tl_tid-0x4
  44:	4c 89 f7                	mov    %r14,%rdi
  47:	8b 0b                   	mov    (%rbx),%ecx
  49:	eb d7                   	jmp    22 <spinlock_try_lock_disas+0x12>
  4b:	0f 1f 44 00 00          	nopl   0x0(%rax,%rax,1)

0000000000000050 <spinlock_lock_disas>:
  50:	41 56                   	push   %r14
  52:	53                      	push   %rbx
  53:	50                      	push   %rax
  54:	48 8b 1d 00 00 00 00    	mov    0x0(%rip),%rbx        # 5b <spinlock_lock_disas+0xb>
			57: R_X86_64_GOTTPOFF	tl_tid-0x4
  5b:	64 8b 0b                	mov    %fs:(%rbx),%ecx
  5e:	85 c9                   	test   %ecx,%ecx
  60:	75 3e                   	jne    a0 <spinlock_lock_disas+0x50>
  62:	64 48 03 1c 25 00 00 00 	add    %fs:0x0,%rbx
  6a:	00 
  6b:	49 89 fe                	mov    %rdi,%r14
  6e:	e8 00 00 00 00          	call   73 <spinlock_lock_disas+0x23>
			6f: R_X86_64_PLT32	init_tl_tid-0x4
  73:	4c 89 f7                	mov    %r14,%rdi
  76:	8b 0b                   	mov    (%rbx),%ecx
  78:	eb 26                   	jmp    a0 <spinlock_lock_disas+0x50>
  7a:	31 c0                   	xor    %eax,%eax
  7c:	eb 04                   	jmp    82 <spinlock_lock_disas+0x32>
  7e:	f3 90                   	pause  
  80:	eb 07                   	jmp    89 <spinlock_lock_disas+0x39>
  82:	83 f8 7f                	cmp    $0x7f,%eax
  85:	77 f7                   	ja     7e <spinlock_lock_disas+0x2e>
  87:	ff c0                   	inc    %eax
  89:	8b 17                   	mov    (%rdi),%edx
  8b:	85 d2                   	test   %edx,%edx
  8d:	74 17                   	je     a6 <spinlock_lock_disas+0x56>
  8f:	eb f1                   	jmp    82 <spinlock_lock_disas+0x32>
  91:	66 66 66 66 66 66 2e 0f 	data16 data16 data16 data16 data16 cs nopw 0x0(%rax,%rax,1)
  99:	1f 84 00 00 00 00 00 
  a0:	8b 07                   	mov    (%rdi),%eax
  a2:	85 c0                   	test   %eax,%eax
  a4:	75 d4                   	jne    7a <spinlock_lock_disas+0x2a>
  a6:	31 c0                   	xor    %eax,%eax
  a8:	f0 0f b1 0f             	lock cmpxchg %ecx,(%rdi)
  ac:	75 f2                   	jne    a0 <spinlock_lock_disas+0x50>
  ae:	48 83 c4 08             	add    $0x8,%rsp
  b2:	5b                      	pop    %rbx
  b3:	41 5e                   	pop    %r14
  b5:	c3                      	ret    
  b6:	66 2e 0f 1f 84 00 00 00 	cs nopw 0x0(%rax,%rax,1)
  be:	00 00 

00000000000000c0 <spinlock_unlock_disas>:
  c0:	c7 07 00 00 00 00       	movl   $0x0,(%rdi)
  c6:	c3                      	ret    
