0000000000000000 <monad::fiber::PriorityQueue::pop()>:
   0:	41 57                   	push   %r15
   2:	41 56                   	push   %r14
   4:	53                      	push   %rbx
   5:	49 89 fe                	mov    %rdi,%r14
   8:	48 8d 5f 20             	lea    0x20(%rdi),%rbx
   c:	48 89 df                	mov    %rbx,%rdi
   f:	e8 00 00 00 00          	call   14 <monad::fiber::PriorityQueue::pop()+0x14>
			10: R_X86_64_PLT32	pthread_mutex_lock-0x4
  14:	85 c0                   	test   %eax,%eax
  16:	75 57                   	jne    6f <monad::fiber::PriorityQueue::pop()+0x6f>
  18:	49 8b 3e                	mov    (%r14),%rdi
  1b:	49 8b 46 08             	mov    0x8(%r14),%rax
  1f:	48 39 c7                	cmp    %rax,%rdi
  22:	74 46                   	je     6a <monad::fiber::PriorityQueue::pop()+0x6a>
  24:	4c 8b 3f                	mov    (%rdi),%r15
  27:	48 89 c1                	mov    %rax,%rcx
  2a:	48 29 f9                	sub    %rdi,%rcx
  2d:	48 83 f9 09             	cmp    $0x9,%rcx
  31:	7c 1e                   	jl     51 <monad::fiber::PriorityQueue::pop()+0x51>
  33:	48 8d 50 f8             	lea    -0x8(%rax),%rdx
  37:	48 8b 48 f8             	mov    -0x8(%rax),%rcx
  3b:	4c 89 78 f8             	mov    %r15,-0x8(%rax)
  3f:	48 29 fa                	sub    %rdi,%rdx
  42:	48 c1 fa 03             	sar    $0x3,%rdx
  46:	31 f6                   	xor    %esi,%esi
  48:	e8 00 00 00 00          	call   4d <monad::fiber::PriorityQueue::pop()+0x4d>
			49: R_X86_64_PLT32	void std::__adjust_heap<__gnu_cxx::__normal_iterator<boost::fibers::context**, std::vector<boost::fibers::context*, std::allocator<boost::fibers::context*> > >, long, boost::fibers::context*, __gnu_cxx::__ops::_Iter_comp_iter<monad::fiber::PriorityQueue::Compare> >(__gnu_cxx::__normal_iterator<boost::fibers::context**, std::vector<boost::fibers::context*, std::allocator<boost::fibers::context*> > >, long, long, boost::fibers::context*, __gnu_cxx::__ops::_Iter_comp_iter<monad::fiber::PriorityQueue::Compare>)-0x4
  4d:	49 8b 46 08             	mov    0x8(%r14),%rax
  51:	48 83 c0 f8             	add    $0xfffffffffffffff8,%rax
  55:	49 89 46 08             	mov    %rax,0x8(%r14)
  59:	48 89 df                	mov    %rbx,%rdi
  5c:	e8 00 00 00 00          	call   61 <monad::fiber::PriorityQueue::pop()+0x61>
			5d: R_X86_64_PLT32	pthread_mutex_unlock-0x4
  61:	4c 89 f8                	mov    %r15,%rax
  64:	5b                      	pop    %rbx
  65:	41 5e                   	pop    %r14
  67:	41 5f                   	pop    %r15
  69:	c3                      	ret    
  6a:	45 31 ff                	xor    %r15d,%r15d
  6d:	eb ea                   	jmp    59 <monad::fiber::PriorityQueue::pop()+0x59>
  6f:	89 c7                   	mov    %eax,%edi
  71:	e8 00 00 00 00          	call   76 <monad::fiber::PriorityQueue::pop()+0x76>
			72: R_X86_64_PLT32	std::__throw_system_error(int)-0x4
  76:	49 89 c6                	mov    %rax,%r14
  79:	48 89 df                	mov    %rbx,%rdi
  7c:	e8 00 00 00 00          	call   81 <monad::fiber::PriorityQueue::pop()+0x81>
			7d: R_X86_64_PLT32	pthread_mutex_unlock-0x4
  81:	4c 89 f7                	mov    %r14,%rdi
  84:	e8 00 00 00 00          	call   89 <monad::fiber::PriorityQueue::pop()+0x89>
			85: R_X86_64_PLT32	_Unwind_Resume-0x4
  89:	0f 1f 80 00 00 00 00    	nopl   0x0(%rax)

0000000000000090 <monad::fiber::PriorityQueue::push(boost::fibers::context*)>:
  90:	41 56                   	push   %r14
  92:	53                      	push   %rbx
  93:	50                      	push   %rax
  94:	49 89 fe                	mov    %rdi,%r14
  97:	48 89 34 24             	mov    %rsi,(%rsp)
  9b:	48 8d 5f 20             	lea    0x20(%rdi),%rbx
  9f:	48 89 df                	mov    %rbx,%rdi
  a2:	e8 00 00 00 00          	call   a7 <monad::fiber::PriorityQueue::push(boost::fibers::context*)+0x17>
			a3: R_X86_64_PLT32	pthread_mutex_lock-0x4
  a7:	85 c0                   	test   %eax,%eax
  a9:	75 1b                   	jne    c6 <monad::fiber::PriorityQueue::push(boost::fibers::context*)+0x36>
  ab:	48 89 e6                	mov    %rsp,%rsi
  ae:	4c 89 f7                	mov    %r14,%rdi
  b1:	e8 00 00 00 00          	call   b6 <monad::fiber::PriorityQueue::push(boost::fibers::context*)+0x26>
			b2: R_X86_64_PLT32	std::priority_queue<boost::fibers::context*, std::vector<boost::fibers::context*, std::allocator<boost::fibers::context*> >, monad::fiber::PriorityQueue::Compare>::push(boost::fibers::context* const&)-0x4
  b6:	48 89 df                	mov    %rbx,%rdi
  b9:	e8 00 00 00 00          	call   be <monad::fiber::PriorityQueue::push(boost::fibers::context*)+0x2e>
			ba: R_X86_64_PLT32	pthread_mutex_unlock-0x4
  be:	48 83 c4 08             	add    $0x8,%rsp
  c2:	5b                      	pop    %rbx
  c3:	41 5e                   	pop    %r14
  c5:	c3                      	ret    
  c6:	89 c7                   	mov    %eax,%edi
  c8:	e8 00 00 00 00          	call   cd <monad::fiber::PriorityQueue::push(boost::fibers::context*)+0x3d>
			c9: R_X86_64_PLT32	std::__throw_system_error(int)-0x4
  cd:	49 89 c6                	mov    %rax,%r14
  d0:	48 89 df                	mov    %rbx,%rdi
  d3:	e8 00 00 00 00          	call   d8 <monad::fiber::PriorityQueue::push(boost::fibers::context*)+0x48>
			d4: R_X86_64_PLT32	pthread_mutex_unlock-0x4
  d8:	4c 89 f7                	mov    %r14,%rdi
  db:	e8 00 00 00 00          	call   e0 <.L.str.2+0x30>
			dc: R_X86_64_PLT32	_Unwind_Resume-0x4
